target datalayout = "e-m:e-p270:32:32-p271:32:32-p272:64:64-i64:64-i128:128-f80:128-n8:16:32:64-S128"
target triple = "x86_64-pc-linux-gnu"

%class.JfrStorageControl = type <{ i64, i64, i64, i64, i64, i64, i8, [7 x i8] }>

; Function Attrs: mustprogress nounwind uwtable
define hidden void @_ZN17JfrStorageControlC2Emm(ptr noundef nonnull align 8 dereferenceable(49) %0, i64 noundef %1, i64 noundef %2) unnamed_addr #1 align 2 {
  %4 = alloca ptr, align 8
  %5 = alloca i64, align 8
  %6 = alloca i64, align 8
  store ptr %0, ptr %4, align 8
  store i64 %1, ptr %5, align 8
  store i64 %2, ptr %6, align 8
  %7 = load ptr, ptr %4, align 8
  %8 = getelementptr inbounds %class.JfrStorageControl, ptr %7, i32 0, i32 0
  %9 = load i64, ptr %5, align 8
  store i64 %9, ptr %8, align 8
  %10 = getelementptr inbounds %class.JfrStorageControl, ptr %7, i32 0, i32 1
  store i64 0, ptr %10, align 8
  %11 = getelementptr inbounds %class.JfrStorageControl, ptr %7, i32 0, i32 2
  store volatile i64 0, ptr %11, align 8
  %12 = getelementptr inbounds %class.JfrStorageControl, ptr %7, i32 0, i32 3
  store i64 0, ptr %12, align 8
  %13 = getelementptr inbounds %class.JfrStorageControl, ptr %7, i32 0, i32 4
  %14 = load i64, ptr %6, align 8
  store i64 %14, ptr %13, align 8
  %15 = getelementptr inbounds %class.JfrStorageControl, ptr %7, i32 0, i32 5
  %16 = load i64, ptr %5, align 8
  %17 = udiv i64 %16, 2
  store i64 %17, ptr %15, align 8
  %18 = getelementptr inbounds %class.JfrStorageControl, ptr %7, i32 0, i32 6
  store i8 0, ptr %18, align 8
  ret void
}