; Function Attrs: mustprogress nofree norecurse nounwind memory(argmem: readwrite, inaccessiblemem: readwrite) uwtable
define hidden void @_ZN17JfrStorageControlC2Emm(ptr noundef nonnull align 8 dereferenceable(49) %0, i64 noundef %1, i64 noundef %2) unnamed_addr #0 align 2 {
  store i64 %1, ptr %0, align 8
  %4 = getelementptr inbounds i8, ptr %0, i64 8
  store i64 0, ptr %4, align 8
  %5 = getelementptr inbounds i8, ptr %0, i64 16
  store volatile i64 0, ptr %5, align 8
  %6 = getelementptr inbounds i8, ptr %0, i64 24
  store i64 0, ptr %6, align 8
  %7 = getelementptr inbounds i8, ptr %0, i64 32
  store i64 %2, ptr %7, align 8
  %8 = getelementptr inbounds i8, ptr %0, i64 40
  %9 = lshr i64 %1, 1
  store i64 %9, ptr %8, align 8
  %10 = getelementptr inbounds i8, ptr %0, i64 48
  store i8 0, ptr %10, align 8
  ret void
}